target datalayout = "e-m:e-p270:32:32-p271:32:32-p272:64:64-i64:64-i128:128-f80:128-n8:16:32:64-S128"
target triple = "x86_64-pc-linux-gnu"

%class.Metadata = type { ptr }
%class.AccessFlags = type { i32 }
%class.MutexLocker = type { %class.MutexLockerImpl }
%class.MutexLockerImpl = type { ptr }
%class.JVMCICompileState = type { ptr, ptr, i64, i8, i8, i8, i8, i8, i8, ptr, i8, i32 }
%class.CompileTask = type { ptr, i32, ptr, ptr, i32, i8, i8, i8, i32, i32, i32, ptr, i8, ptr, i32, i32, ptr, ptr, i8, i64, i64, ptr, ptr, i32, i32, ptr, i8, i64 }
%class.Method = type { %class.Metadata, ptr, ptr, ptr, ptr, %class.AccessFlags, i32, %class.MethodFlags, i16, %class.JfrTraceFlag, ptr, ptr, ptr, ptr }
%class.MethodFlags = type { i32 }
%class.JfrTraceFlag = type { i16 }

@JvmtiThreadState_lock = external global ptr, align 8
@_ZN11JvmtiExport19_redefinition_countE = external global i64, align 8
@_ZN11JvmtiExport31_can_hotswap_or_post_breakpointE = external global i8, align 1
@_ZN11JvmtiExport27_can_access_local_variablesE = external global i8, align 1
@_ZN11JvmtiExport23_can_post_on_exceptionsE = external global i8, align 1
@_ZN11JvmtiExport14_can_pop_frameE = external global i8, align 1

; Function Attrs: mustprogress nounwind uwtable
define linkonce_odr hidden void @_ZN15MutexLockerImplD2Ev(ptr noundef nonnull align 8 dereferenceable(8) %0) unnamed_addr #1 comdat align 2 {
  %2 = alloca ptr, align 8
  store ptr %0, ptr %2, align 8
  %3 = load ptr, ptr %2, align 8
  %4 = getelementptr inbounds %class.MutexLockerImpl, ptr %3, i32 0, i32 0
  %5 = load ptr, ptr %4, align 8
  %6 = icmp ne ptr %5, null
  br i1 %6, label %7, label %10

7:                                                ; preds = %1
  %8 = getelementptr inbounds %class.MutexLockerImpl, ptr %3, i32 0, i32 0
  %9 = load ptr, ptr %8, align 8
  call void @_ZN5Mutex6unlockEv(ptr noundef nonnull align 8 dereferenceable(104) %9)
  br label %10

10:                                               ; preds = %7, %1
  ret void
}

; Function Attrs: mustprogress nounwind uwtable
define linkonce_odr hidden noundef zeroext i1 @_ZNK11MethodFlags6is_oldEv(ptr noundef nonnull align 4 dereferenceable(4) %0) #1 comdat align 2 {
  %2 = alloca ptr, align 8
  store ptr %0, ptr %2, align 8
  %3 = load ptr, ptr %2, align 8
  %4 = getelementptr inbounds %class.MethodFlags, ptr %3, i32 0, i32 0
  %5 = load i32, ptr %4, align 4
  %6 = and i32 %5, 4
  %7 = icmp ne i32 %6, 0
  ret i1 %7
}

; Function Attrs: mustprogress nounwind uwtable
define linkonce_odr hidden void @_ZN15MutexLockerImplC2EP5MutexNS0_18SafepointCheckFlagE(ptr noundef nonnull align 8 dereferenceable(8) %0, ptr noundef %1, i32 noundef %2) unnamed_addr #1 comdat align 2 {
  %4 = alloca ptr, align 8
  %5 = alloca ptr, align 8
  %6 = alloca i32, align 4
  %7 = alloca i8, align 1
  store ptr %0, ptr %4, align 8
  store ptr %1, ptr %5, align 8
  store i32 %2, ptr %6, align 4
  %8 = load ptr, ptr %4, align 8
  %9 = getelementptr inbounds %class.MutexLockerImpl, ptr %8, i32 0, i32 0
  %10 = load ptr, ptr %5, align 8
  store ptr %10, ptr %9, align 8
  %11 = load i32, ptr %6, align 4
  %12 = icmp eq i32 %11, 1
  %13 = zext i1 %12 to i8
  store i8 %13, ptr %7, align 1
  %14 = getelementptr inbounds %class.MutexLockerImpl, ptr %8, i32 0, i32 0
  %15 = load ptr, ptr %14, align 8
  %16 = icmp ne ptr %15, null
  br i1 %16, label %17, label %27

17:                                               ; preds = %3
  %18 = load i8, ptr %7, align 1
  %19 = trunc i8 %18 to i1
  br i1 %19, label %20, label %23

20:                                               ; preds = %17
  %21 = getelementptr inbounds %class.MutexLockerImpl, ptr %8, i32 0, i32 0
  %22 = load ptr, ptr %21, align 8
  call void @_ZN5Mutex28lock_without_safepoint_checkEv(ptr noundef nonnull align 8 dereferenceable(104) %22)
  br label %26

23:                                               ; preds = %17
  %24 = getelementptr inbounds %class.MutexLockerImpl, ptr %8, i32 0, i32 0
  %25 = load ptr, ptr %24, align 8
  call void @_ZN5Mutex4lockEv(ptr noundef nonnull align 8 dereferenceable(104) %25)
  br label %26

26:                                               ; preds = %23, %20
  br label %27

27:                                               ; preds = %26, %3
  ret void
}

; Function Attrs: mustprogress nounwind uwtable
define linkonce_odr hidden void @_ZN11MutexLockerD2Ev(ptr noundef nonnull align 8 dereferenceable(8) %0) unnamed_addr #1 comdat align 2 {
  %2 = alloca ptr, align 8
  store ptr %0, ptr %2, align 8
  %3 = load ptr, ptr %2, align 8
  call void @_ZN15MutexLockerImplD2Ev(ptr noundef nonnull align 8 dereferenceable(8) %3) #9
  ret void
}

; Function Attrs: mustprogress nounwind uwtable
define linkonce_odr hidden void @_ZN11CompileTask32set_blocking_jvmci_compile_stateEP17JVMCICompileState(ptr noundef nonnull align 8 dereferenceable(176) %0, ptr noundef %1) #1 comdat align 2 {
  %3 = alloca ptr, align 8
  %4 = alloca ptr, align 8
  store ptr %0, ptr %3, align 8
  store ptr %1, ptr %4, align 8
  %5 = load ptr, ptr %3, align 8
  %6 = load ptr, ptr %4, align 8
  %7 = getelementptr inbounds %class.CompileTask, ptr %5, i32 0, i32 13
  store ptr %6, ptr %7, align 8
  ret void
}

; Function Attrs: mustprogress nounwind uwtable
define linkonce_odr hidden noundef zeroext i1 @_ZNK11CompileTask11is_blockingEv(ptr noundef nonnull align 8 dereferenceable(176) %0) #1 comdat align 2 {
  %2 = alloca ptr, align 8
  store ptr %0, ptr %2, align 8
  %3 = load ptr, ptr %2, align 8
  %4 = getelementptr inbounds %class.CompileTask, ptr %3, i32 0, i32 7
  %5 = load i8, ptr %4, align 2
  %6 = trunc i8 %5 to i1
  ret i1 %6
}

; Function Attrs: mustprogress nounwind uwtable
define linkonce_odr hidden noundef zeroext i1 @_ZNK6Method6is_oldEv(ptr noundef nonnull align 8 dereferenceable(88) %0) #1 comdat align 2 {
  %2 = alloca ptr, align 8
  store ptr %0, ptr %2, align 8
  %3 = load ptr, ptr %2, align 8
  %4 = getelementptr inbounds %class.Method, ptr %3, i32 0, i32 7
  %5 = call noundef zeroext i1 @_ZNK11MethodFlags6is_oldEv(ptr noundef nonnull align 4 dereferenceable(4) %4)
  ret i1 %5
}

; Function Attrs: mustprogress nounwind uwtable
define linkonce_odr hidden noundef ptr @_ZNK11CompileTask6methodEv(ptr noundef nonnull align 8 dereferenceable(176) %0) #1 comdat align 2 {
  %2 = alloca ptr, align 8
  store ptr %0, ptr %2, align 8
  %3 = load ptr, ptr %2, align 8
  %4 = getelementptr inbounds %class.CompileTask, ptr %3, i32 0, i32 2
  %5 = load ptr, ptr %4, align 8
  ret ptr %5
}

; Function Attrs: mustprogress nounwind uwtable
define linkonce_odr hidden noundef zeroext i1 @_ZN11JvmtiExport13can_pop_frameEv() #1 comdat align 2 {
  %1 = load i8, ptr @_ZN11JvmtiExport14_can_pop_frameE, align 1
  %2 = trunc i8 %1 to i1
  ret i1 %2
}

; Function Attrs: mustprogress nounwind uwtable
define linkonce_odr hidden noundef zeroext i1 @_ZN11JvmtiExport22can_post_on_exceptionsEv() #1 comdat align 2 {
  %1 = load i8, ptr @_ZN11JvmtiExport23_can_post_on_exceptionsE, align 1
  %2 = trunc i8 %1 to i1
  ret i1 %2
}

; Function Attrs: mustprogress nounwind uwtable
define linkonce_odr hidden noundef zeroext i1 @_ZN11JvmtiExport26can_access_local_variablesEv() #1 comdat align 2 {
  %1 = load i8, ptr @_ZN11JvmtiExport27_can_access_local_variablesE, align 1
  %2 = trunc i8 %1 to i1
  ret i1 %2
}

; Function Attrs: mustprogress nounwind uwtable
define linkonce_odr hidden noundef zeroext i1 @_ZN11JvmtiExport30can_hotswap_or_post_breakpointEv() #1 comdat align 2 {
  %1 = load i8, ptr @_ZN11JvmtiExport31_can_hotswap_or_post_breakpointE, align 1
  %2 = trunc i8 %1 to i1
  ret i1 %2
}

; Function Attrs: mustprogress nounwind uwtable
define linkonce_odr hidden noundef i64 @_ZN11JvmtiExport18redefinition_countEv() #1 comdat align 2 {
  %1 = load i64, ptr @_ZN11JvmtiExport19_redefinition_countE, align 8
  ret i64 %1
}

; Function Attrs: mustprogress nounwind uwtable
define linkonce_odr hidden void @_ZN11MutexLockerC2EP5MutexNS0_18SafepointCheckFlagE(ptr noundef nonnull align 8 dereferenceable(8) %0, ptr noundef %1, i32 noundef %2) unnamed_addr #1 comdat align 2 {
  %4 = alloca ptr, align 8
  %5 = alloca ptr, align 8
  %6 = alloca i32, align 4
  store ptr %0, ptr %4, align 8
  store ptr %1, ptr %5, align 8
  store i32 %2, ptr %6, align 4
  %7 = load ptr, ptr %4, align 8
  %8 = load ptr, ptr %5, align 8
  %9 = load i32, ptr %6, align 4
  call void @_ZN15MutexLockerImplC2EP5MutexNS0_18SafepointCheckFlagE(ptr noundef nonnull align 8 dereferenceable(8) %7, ptr noundef %8, i32 noundef %9)
  ret void
}

; Function Attrs: mustprogress nounwind uwtable
define hidden void @_ZN17JVMCICompileStateC2EP11CompileTaskP13JVMCICompiler(ptr noundef nonnull align 8 dereferenceable(48) %0, ptr noundef %1, ptr noundef %2) unnamed_addr #1 align 2 {
  %4 = alloca ptr, align 8
  %5 = alloca ptr, align 8
  %6 = alloca ptr, align 8
  %7 = alloca %class.MutexLocker, align 8
  store ptr %0, ptr %4, align 8
  store ptr %1, ptr %5, align 8
  store ptr %2, ptr %6, align 8
  %8 = load ptr, ptr %4, align 8
  %9 = getelementptr inbounds %class.JVMCICompileState, ptr %8, i32 0, i32 0
  %10 = load ptr, ptr %5, align 8
  store ptr %10, ptr %9, align 8
  %11 = getelementptr inbounds %class.JVMCICompileState, ptr %8, i32 0, i32 1
  %12 = load ptr, ptr %6, align 8
  store ptr %12, ptr %11, align 8
  %13 = getelementptr inbounds %class.JVMCICompileState, ptr %8, i32 0, i32 8
  store i8 1, ptr %13, align 1
  %14 = getelementptr inbounds %class.JVMCICompileState, ptr %8, i32 0, i32 9
  store ptr null, ptr %14, align 8
  %15 = getelementptr inbounds %class.JVMCICompileState, ptr %8, i32 0, i32 10
  store i8 0, ptr %15, align 8
  %16 = load ptr, ptr @JvmtiThreadState_lock, align 8
  call void @_ZN11MutexLockerC2EP5MutexNS0_18SafepointCheckFlagE(ptr noundef nonnull align 8 dereferenceable(8) %7, ptr noundef %16, i32 noundef 0)
  %17 = call noundef i64 @_ZN11JvmtiExport18redefinition_countEv()
  %18 = getelementptr inbounds %class.JVMCICompileState, ptr %8, i32 0, i32 2
  store i64 %17, ptr %18, align 8
  %19 = call noundef zeroext i1 @_ZN11JvmtiExport30can_hotswap_or_post_breakpointEv()
  %20 = select i1 %19, i32 1, i32 0
  %21 = trunc i32 %20 to i8
  %22 = getelementptr inbounds %class.JVMCICompileState, ptr %8, i32 0, i32 3
  store i8 %21, ptr %22, align 8
  %23 = call noundef zeroext i1 @_ZN11JvmtiExport26can_access_local_variablesEv()
  %24 = select i1 %23, i32 1, i32 0
  %25 = trunc i32 %24 to i8
  %26 = getelementptr inbounds %class.JVMCICompileState, ptr %8, i32 0, i32 4
  store i8 %25, ptr %26, align 1
  %27 = call noundef zeroext i1 @_ZN11JvmtiExport22can_post_on_exceptionsEv()
  %28 = select i1 %27, i32 1, i32 0
  %29 = trunc i32 %28 to i8
  %30 = getelementptr inbounds %class.JVMCICompileState, ptr %8, i32 0, i32 5
  store i8 %29, ptr %30, align 2
  %31 = call noundef zeroext i1 @_ZN11JvmtiExport13can_pop_frameEv()
  %32 = select i1 %31, i32 1, i32 0
  %33 = trunc i32 %32 to i8
  %34 = getelementptr inbounds %class.JVMCICompileState, ptr %8, i32 0, i32 6
  store i8 %33, ptr %34, align 1
  %35 = getelementptr inbounds %class.JVMCICompileState, ptr %8, i32 0, i32 0
  %36 = load ptr, ptr %35, align 8
  %37 = icmp ne ptr %36, null
  br i1 %37, label %38, label %43

38:                                               ; preds = %3
  %39 = getelementptr inbounds %class.JVMCICompileState, ptr %8, i32 0, i32 0
  %40 = load ptr, ptr %39, align 8
  %41 = call noundef ptr @_ZNK11CompileTask6methodEv(ptr noundef nonnull align 8 dereferenceable(176) %40)
  %42 = call noundef zeroext i1 @_ZNK6Method6is_oldEv(ptr noundef nonnull align 8 dereferenceable(88) %41)
  br label %43

43:                                               ; preds = %38, %3
  %44 = phi i1 [ false, %3 ], [ %42, %38 ]
  %45 = getelementptr inbounds %class.JVMCICompileState, ptr %8, i32 0, i32 7
  %46 = zext i1 %44 to i8
  store i8 %46, ptr %45, align 4
  %47 = load ptr, ptr %5, align 8
  %48 = call noundef zeroext i1 @_ZNK11CompileTask11is_blockingEv(ptr noundef nonnull align 8 dereferenceable(176) %47)
  br i1 %48, label %49, label %51

49:                                               ; preds = %43
  %50 = load ptr, ptr %5, align 8
  call void @_ZN11CompileTask32set_blocking_jvmci_compile_stateEP17JVMCICompileState(ptr noundef nonnull align 8 dereferenceable(176) %50, ptr noundef %8)
  br label %51

51:                                               ; preds = %49, %43
  call void @_ZN11MutexLockerD2Ev(ptr noundef nonnull align 8 dereferenceable(8) %7) #9
  ret void
}