; Function Attrs: mustprogress nounwind uwtable
define hidden void @_ZN17JVMCICompileStateC2EP11CompileTaskP13JVMCICompiler(ptr noundef nonnull align 8 dereferenceable(48) %0, ptr noundef %1, ptr noundef %2) unnamed_addr #0 align 2 {
  store ptr %1, ptr %0, align 8
  %4 = getelementptr inbounds i8, ptr %0, i64 8
  store ptr %2, ptr %4, align 8
  %5 = getelementptr inbounds i8, ptr %0, i64 29
  store i8 1, ptr %5, align 1
  %6 = getelementptr inbounds i8, ptr %0, i64 32
  store ptr null, ptr %6, align 8
  %7 = getelementptr inbounds i8, ptr %0, i64 40
  store i8 0, ptr %7, align 8
  %8 = load ptr, ptr @JvmtiThreadState_lock, align 8
  %.not.i.i = icmp eq ptr %8, null
  br i1 %.not.i.i, label %_ZN11MutexLockerC2EP5MutexNS0_18SafepointCheckFlagE.exit, label %9

9:                                                ; preds = %3
  tail call void @_ZN5Mutex4lockEv(ptr noundef nonnull align 8 dereferenceable(104) %8) #14
  %.pre = load ptr, ptr %0, align 8
  br label %_ZN11MutexLockerC2EP5MutexNS0_18SafepointCheckFlagE.exit

_ZN11MutexLockerC2EP5MutexNS0_18SafepointCheckFlagE.exit: ; preds = %3, %9
  %10 = phi ptr [ %1, %3 ], [ %.pre, %9 ]
  %11 = load i64, ptr @_ZN11JvmtiExport19_redefinition_countE, align 8
  %12 = getelementptr inbounds i8, ptr %0, i64 16
  store i64 %11, ptr %12, align 8
  %13 = load i8, ptr @_ZN11JvmtiExport31_can_hotswap_or_post_breakpointE, align 1
  %14 = and i8 %13, 1
  %15 = getelementptr inbounds i8, ptr %0, i64 24
  store i8 %14, ptr %15, align 8
  %16 = load i8, ptr @_ZN11JvmtiExport27_can_access_local_variablesE, align 1
  %17 = and i8 %16, 1
  %18 = getelementptr inbounds i8, ptr %0, i64 25
  store i8 %17, ptr %18, align 1
  %19 = load i8, ptr @_ZN11JvmtiExport23_can_post_on_exceptionsE, align 1
  %20 = and i8 %19, 1
  %21 = getelementptr inbounds i8, ptr %0, i64 26
  store i8 %20, ptr %21, align 2
  %22 = load i8, ptr @_ZN11JvmtiExport14_can_pop_frameE, align 1
  %23 = and i8 %22, 1
  %24 = getelementptr inbounds i8, ptr %0, i64 27
  store i8 %23, ptr %24, align 1
  %.not = icmp eq ptr %10, null
  br i1 %.not, label %33, label %25

25:                                               ; preds = %_ZN11MutexLockerC2EP5MutexNS0_18SafepointCheckFlagE.exit
  %26 = getelementptr inbounds i8, ptr %10, i64 16
  %27 = load ptr, ptr %26, align 8
  %28 = getelementptr inbounds i8, ptr %27, i64 48
  %29 = load i32, ptr %28, align 4
  %30 = trunc i32 %29 to i8
  %31 = lshr i8 %30, 2
  %32 = and i8 %31, 1
  br label %33

33:                                               ; preds = %25, %_ZN11MutexLockerC2EP5MutexNS0_18SafepointCheckFlagE.exit
  %34 = phi i8 [ 0, %_ZN11MutexLockerC2EP5MutexNS0_18SafepointCheckFlagE.exit ], [ %32, %25 ]
  %35 = getelementptr inbounds i8, ptr %0, i64 28
  store i8 %34, ptr %35, align 4
  %36 = getelementptr inbounds i8, ptr %1, i64 38
  %37 = load i8, ptr %36, align 2
  %38 = trunc i8 %37 to i1
  br i1 %38, label %39, label %41

39:                                               ; preds = %33
  %40 = getelementptr inbounds i8, ptr %1, i64 72
  store ptr %0, ptr %40, align 8
  br label %41

41:                                               ; preds = %39, %33
  br i1 %.not.i.i, label %_ZN11MutexLockerD2Ev.exit, label %42

42:                                               ; preds = %41
  tail call void @_ZN5Mutex6unlockEv(ptr noundef nonnull align 8 dereferenceable(104) %8) #14
  br label %_ZN11MutexLockerD2Ev.exit

_ZN11MutexLockerD2Ev.exit:                        ; preds = %41, %42
  ret void
}